target datalayout = "e-m:e-p270:32:32-p271:32:32-p272:64:64-i64:64-i128:128-f80:128-n8:16:32:64-S128"
target triple = "x86_64-pc-linux-gnu"

%class.BuildContext = type { %class.rcContext.base, [28 x i64], [28 x i64], [1000 x ptr], i32, [8000 x i8], i32 }
%class.rcContext.base = type <{ ptr, i8, i8 }>
%class.rcContext = type <{ ptr, i8, i8, [6 x i8] }>

@_ZTV9rcContext = external unnamed_addr constant { [10 x ptr] }, align 8

; Function Attrs: mustprogress nounwind uwtable
define linkonce_odr dso_local void @_ZN9rcContextD2Ev(ptr noundef nonnull align 8 dereferenceable(10) %0) unnamed_addr #1 comdat align 2 {
  %2 = alloca ptr, align 8
  store ptr %0, ptr %2, align 8
  ret void
}

; Function Attrs: mustprogress uwtable
define linkonce_odr dso_local void @_ZN9rcContext11resetTimersEv(ptr noundef nonnull align 8 dereferenceable(10) %0) #0 comdat align 2 {
  %2 = alloca ptr, align 8
  store ptr %0, ptr %2, align 8
  %3 = load ptr, ptr %2, align 8
  %4 = getelementptr inbounds %class.rcContext, ptr %3, i32 0, i32 2
  %5 = load i8, ptr %4, align 1
  %6 = trunc i8 %5 to i1
  br i1 %6, label %7, label %11

7:                                                ; preds = %1
  %8 = load ptr, ptr %3, align 8
  %9 = getelementptr inbounds ptr, ptr %8, i64 4
  %10 = load ptr, ptr %9, align 8
  call void %10(ptr noundef nonnull align 8 dereferenceable(10) %3)
  br label %11

11:                                               ; preds = %7, %1
  ret void
}

; Function Attrs: mustprogress nounwind uwtable
define linkonce_odr dso_local void @_ZN9rcContextC2Eb(ptr noundef nonnull align 8 dereferenceable(10) %0, i1 noundef zeroext %1) unnamed_addr #1 comdat align 2 {
  %3 = alloca ptr, align 8
  %4 = alloca i8, align 1
  store ptr %0, ptr %3, align 8
  %5 = zext i1 %1 to i8
  store i8 %5, ptr %4, align 1
  %6 = load ptr, ptr %3, align 8
  store ptr getelementptr inbounds ({ [10 x ptr] }, ptr @_ZTV9rcContext, i32 0, i32 0, i32 2), ptr %6, align 8
  %7 = getelementptr inbounds %class.rcContext, ptr %6, i32 0, i32 1
  %8 = load i8, ptr %4, align 1
  %9 = trunc i8 %8 to i1
  %10 = zext i1 %9 to i8
  store i8 %10, ptr %7, align 8
  %11 = getelementptr inbounds %class.rcContext, ptr %6, i32 0, i32 2
  %12 = load i8, ptr %4, align 1
  %13 = trunc i8 %12 to i1
  %14 = zext i1 %13 to i8
  store i8 %14, ptr %11, align 1
  ret void
}

; Function Attrs: mustprogress uwtable
define dso_local void @_ZN12BuildContextC2Ev(ptr noundef nonnull align 8 dereferenceable(16472) %0) unnamed_addr #0 align 2 personality ptr @__gxx_personality_v0 {
  %2 = alloca ptr, align 8
  %3 = alloca ptr, align 8
  %4 = alloca i32, align 4
  store ptr %0, ptr %2, align 8
  %5 = load ptr, ptr %2, align 8
  call void @_ZN9rcContextC2Eb(ptr noundef nonnull align 8 dereferenceable(10) %5, i1 noundef zeroext true)
  store ptr getelementptr inbounds ({ [10 x ptr] }, ptr @_ZTV12BuildContext, i32 0, i32 0, i32 2), ptr %5, align 8
  %6 = getelementptr inbounds %class.BuildContext, ptr %5, i32 0, i32 4
  store i32 0, ptr %6, align 8
  %7 = getelementptr inbounds %class.BuildContext, ptr %5, i32 0, i32 6
  store i32 0, ptr %7, align 4
  %8 = getelementptr inbounds %class.BuildContext, ptr %5, i32 0, i32 3
  %9 = getelementptr inbounds [1000 x ptr], ptr %8, i64 0, i64 0
  call void @llvm.memset.p0.i64(ptr align 8 %9, i8 0, i64 8000, i1 false)
  invoke void @_ZN9rcContext11resetTimersEv(ptr noundef nonnull align 8 dereferenceable(10) %5)
          to label %10 unwind label %11

10:                                               ; preds = %1
  ret void

11:                                               ; preds = %1
  %12 = landingpad { ptr, i32 }
          cleanup
  %13 = extractvalue { ptr, i32 } %12, 0
  store ptr %13, ptr %3, align 8
  %14 = extractvalue { ptr, i32 } %12, 1
  store i32 %14, ptr %4, align 4
  call void @_ZN9rcContextD2Ev(ptr noundef nonnull align 8 dereferenceable(10) %5) #8
  br label %15

15:                                               ; preds = %11
  %16 = load ptr, ptr %3, align 8
  %17 = load i32, ptr %4, align 4
  %18 = insertvalue { ptr, i32 } poison, ptr %16, 0
  %19 = insertvalue { ptr, i32 } %18, i32 %17, 1
  resume { ptr, i32 } %19
}