; Function Attrs: mustprogress nofree norecurse nosync nounwind willreturn memory(argmem: write) uwtable
define dso_local void @_ZN12BuildContextC2Ev(ptr nocapture noundef nonnull writeonly align 8 dereferenceable(16472) %0) unnamed_addr #0 align 2 personality ptr @__gxx_personality_v0 {
_ZN9rcContext11resetTimersEv.exit:
  %1 = getelementptr inbounds i8, ptr %0, i64 8
  store i8 1, ptr %1, align 8
  %2 = getelementptr inbounds i8, ptr %0, i64 9
  store i8 1, ptr %2, align 1
  store ptr getelementptr inbounds ({ [10 x ptr] }, ptr @_ZTV12BuildContext, i64 0, i32 0, i64 2), ptr %0, align 8
  %3 = getelementptr inbounds i8, ptr %0, i64 16468
  store i32 0, ptr %3, align 4
  %4 = getelementptr inbounds i8, ptr %0, i64 464
  tail call void @llvm.memset.p0.i64(ptr noundef nonnull align 8 dereferenceable(8004) %4, i8 0, i64 8004, i1 false)
  %5 = getelementptr inbounds i8, ptr %0, i64 240
  tail call void @llvm.memset.p0.i64(ptr noundef nonnull align 8 dereferenceable(224) %5, i8 -1, i64 224, i1 false)
  ret void
}